target datalayout = "e-m:e-p270:32:32-p271:32:32-p272:64:64-i64:64-i128:128-f80:128-n8:16:32:64-S128"
target triple = "x86_64-pc-linux-gnu"

; Function Attrs: null_pointer_is_valid sspstrong uwtable
define ptr @get_dect_standard_8bits_string(ptr noundef %0, ptr noundef %1, i32 noundef %2) #0 {
  %4 = alloca ptr, align 8
  %5 = alloca ptr, align 8
  %6 = alloca i32, align 4
  %7 = alloca i32, align 4
  %8 = alloca ptr, align 8
  %9 = alloca ptr, align 8
  store ptr %0, ptr %4, align 8
  store ptr %1, ptr %5, align 8
  store i32 %2, ptr %6, align 4
  call void @llvm.lifetime.start.p0(i64 4, ptr %7) #8
  call void @llvm.lifetime.start.p0(i64 8, ptr %8) #8
  call void @llvm.lifetime.start.p0(i64 8, ptr %9) #8
  %10 = load ptr, ptr %4, align 8
  %11 = load i32, ptr %6, align 4
  %12 = add i32 %11, 1
  %13 = sext i32 %12 to i64
  %14 = call noalias ptr @wmem_strbuf_new_sized(ptr noundef %10, i64 noundef %13)
  store ptr %14, ptr %9, align 8
  store i32 0, ptr %7, align 4
  %15 = load ptr, ptr %5, align 8
  store ptr %15, ptr %8, align 8
  br label %16

16:                                               ; preds = %47, %3
  %17 = load i32, ptr %7, align 4
  %18 = load i32, ptr %6, align 4
  %19 = icmp slt i32 %17, %18
  br i1 %19, label %20, label %52

20:                                               ; preds = %16
  %21 = load ptr, ptr %8, align 8
  %22 = load i8, ptr %21, align 1
  %23 = zext i8 %22 to i32
  %24 = and i32 %23, 128
  %25 = icmp ne i32 %24, 0
  br i1 %25, label %26, label %28

26:                                               ; preds = %20
  %27 = load ptr, ptr %9, align 8
  call void @wmem_strbuf_append_unichar(ptr noundef %27, i32 noundef 65533)
  br label %46

28:                                               ; preds = %20
  %29 = load ptr, ptr %8, align 8
  %30 = load i8, ptr %29, align 1
  %31 = zext i8 %30 to i64
  %32 = getelementptr [128 x i16], ptr @dect_standard_8bits_code_table, i64 0, i64 %31
  %33 = load i16, ptr %32, align 2
  %34 = icmp ne i16 %33, 0
  br i1 %34, label %37, label %35

35:                                               ; preds = %28
  %36 = load ptr, ptr %9, align 8
  call void @wmem_strbuf_append_unichar(ptr noundef %36, i32 noundef 65533)
  br label %45

37:                                               ; preds = %28
  %38 = load ptr, ptr %9, align 8
  %39 = load ptr, ptr %8, align 8
  %40 = load i8, ptr %39, align 1
  %41 = zext i8 %40 to i64
  %42 = getelementptr [128 x i16], ptr @dect_standard_8bits_code_table, i64 0, i64 %41
  %43 = load i16, ptr %42, align 2
  %44 = zext i16 %43 to i32
  call void @wmem_strbuf_append_unichar(ptr noundef %38, i32 noundef %44)
  br label %45

45:                                               ; preds = %37, %35
  br label %46

46:                                               ; preds = %45, %26
  br label %47

47:                                               ; preds = %46
  %48 = load ptr, ptr %8, align 8
  %49 = getelementptr i8, ptr %48, i32 1
  store ptr %49, ptr %8, align 8
  %50 = load i32, ptr %7, align 4
  %51 = add i32 %50, 1
  store i32 %51, ptr %7, align 4
  br label %16, !llvm.loop !24

52:                                               ; preds = %16
  %53 = load ptr, ptr %9, align 8
  %54 = call ptr @wmem_strbuf_finalize(ptr noundef %53)
  call void @llvm.lifetime.end.p0(i64 8, ptr %9) #8
  call void @llvm.lifetime.end.p0(i64 8, ptr %8) #8
  call void @llvm.lifetime.end.p0(i64 4, ptr %7) #8
  ret ptr %54
}