; Function Attrs: null_pointer_is_valid sspstrong uwtable
define ptr @get_dect_standard_8bits_string(ptr noundef %0, ptr noundef readonly captures(none) %1, i32 noundef %2) local_unnamed_addr #0 {
  %4 = add i32 %2, 1
  %5 = sext i32 %4 to i64
  %6 = tail call noalias ptr @wmem_strbuf_new_sized(ptr noundef %0, i64 noundef %5)
  %7 = icmp sgt i32 %2, 0
  br i1 %7, label %.lr.ph, label %._crit_edge

.lr.ph:                                           ; preds = %3, %14
  %.017 = phi i32 [ %16, %14 ], [ 0, %3 ]
  %.01316 = phi ptr [ %15, %14 ], [ %1, %3 ]
  %8 = load i8, ptr %.01316, align 1
  %or.cond = icmp slt i8 %8, 1
  br i1 %or.cond, label %14, label %9

9:                                                ; preds = %.lr.ph
  %10 = zext nneg i8 %8 to i64
  %11 = getelementptr [128 x i16], ptr @dect_standard_8bits_code_table, i64 0, i64 %10
  %12 = load i16, ptr %11, align 2
  %13 = zext i16 %12 to i32
  br label %14

14:                                               ; preds = %.lr.ph, %9
  %.sink = phi i32 [ %13, %9 ], [ 65533, %.lr.ph ]
  tail call void @wmem_strbuf_append_unichar(ptr noundef %6, i32 noundef %.sink)
  %15 = getelementptr i8, ptr %.01316, i64 1
  %16 = add nuw nsw i32 %.017, 1
  %exitcond.not = icmp eq i32 %16, %2
  br i1 %exitcond.not, label %._crit_edge, label %.lr.ph, !llvm.loop !22

._crit_edge:                                      ; preds = %14, %3
  %17 = tail call ptr @wmem_strbuf_finalize(ptr noundef %6)
  ret ptr %17
}